; Function Attrs: nounwind uwtable
define ptr @l_Std_DHashMap_Internal_AssocList_foldrM___at_Lean_Elab_Tactic_GuardMsgs_elabGuardMsgs___spec__36(ptr noundef readnone captures(none) %0, ptr noundef readnone captures(none) %1, ptr noundef %2, ptr noundef %3) local_unnamed_addr #0 {
  %5 = ptrtoint ptr %3 to i64
  %6 = and i64 %5, 1
  %.not.i = icmp eq i64 %6, 0
  br i1 %.not.i, label %10, label %7

7:                                                ; preds = %4
  %8 = lshr i64 %5, 1
  %9 = trunc i64 %8 to i32
  br label %lean_obj_tag.exit

10:                                               ; preds = %4
  %11 = getelementptr i8, ptr %3, i64 4
  %.val.i = load i32, ptr %11, align 4
  %12 = lshr i32 %.val.i, 24
  br label %lean_obj_tag.exit

lean_obj_tag.exit:                                ; preds = %7, %10
  %.0.i = phi i32 [ %9, %7 ], [ %12, %10 ]
  %13 = icmp eq i32 %.0.i, 0
  br i1 %13, label %14, label %23

14:                                               ; preds = %lean_obj_tag.exit
  %15 = ptrtoint ptr %2 to i64
  %16 = and i64 %15, 1
  %.not34 = icmp eq i64 %16, 0
  br i1 %.not34, label %17, label %lean_inc.exit23

17:                                               ; preds = %14
  %.val.i24 = load i32, ptr %2, align 4, !tbaa !8
  %18 = icmp sgt i32 %.val.i24, 0
  br i1 %18, label %19, label %21, !prof !13

19:                                               ; preds = %17
  %20 = add nuw i32 %.val.i24, 1
  store i32 %20, ptr %2, align 4, !tbaa !8
  br label %lean_inc.exit23

21:                                               ; preds = %17
  %.not.i25 = icmp eq i32 %.val.i24, 0
  br i1 %.not.i25, label %lean_inc.exit23, label %22

22:                                               ; preds = %21
  tail call void @lean_inc_ref_cold(ptr noundef nonnull %2) #7
  br label %lean_inc.exit23

23:                                               ; preds = %lean_obj_tag.exit
  %24 = getelementptr inbounds nuw i8, ptr %3, i64 8
  %25 = load ptr, ptr %24, align 8, !tbaa !4
  %26 = getelementptr inbounds nuw i8, ptr %3, i64 16
  %27 = load ptr, ptr %26, align 8, !tbaa !4
  %28 = getelementptr inbounds nuw i8, ptr %3, i64 24
  %29 = load ptr, ptr %28, align 8, !tbaa !4
  %30 = tail call ptr @l_Std_DHashMap_Internal_AssocList_foldrM___at_Lean_Elab_Tactic_GuardMsgs_elabGuardMsgs___spec__36(ptr noundef %0, ptr noundef %1, ptr noundef %2, ptr noundef %29)
  %31 = ptrtoint ptr %27 to i64
  %32 = and i64 %31, 1
  %.not = icmp eq i64 %32, 0
  br i1 %.not, label %33, label %lean_inc.exit22

33:                                               ; preds = %23
  %.val.i26 = load i32, ptr %27, align 4, !tbaa !8
  %34 = icmp sgt i32 %.val.i26, 0
  br i1 %34, label %35, label %37, !prof !13

35:                                               ; preds = %33
  %36 = add nuw i32 %.val.i26, 1
  store i32 %36, ptr %27, align 4, !tbaa !8
  br label %lean_inc.exit22

37:                                               ; preds = %33
  %.not.i27 = icmp eq i32 %.val.i26, 0
  br i1 %.not.i27, label %lean_inc.exit22, label %38

38:                                               ; preds = %37
  tail call void @lean_inc_ref_cold(ptr noundef nonnull %27) #7
  br label %lean_inc.exit22

lean_inc.exit22:                                  ; preds = %38, %37, %35, %23
  %39 = ptrtoint ptr %25 to i64
  %40 = and i64 %39, 1
  %.not33 = icmp eq i64 %40, 0
  br i1 %.not33, label %41, label %lean_inc.exit

41:                                               ; preds = %lean_inc.exit22
  %.val.i29 = load i32, ptr %25, align 4, !tbaa !8
  %42 = icmp sgt i32 %.val.i29, 0
  br i1 %42, label %43, label %45, !prof !13

43:                                               ; preds = %41
  %44 = add nuw i32 %.val.i29, 1
  store i32 %44, ptr %25, align 4, !tbaa !8
  br label %lean_inc.exit

45:                                               ; preds = %41
  %.not.i30 = icmp eq i32 %.val.i29, 0
  br i1 %.not.i30, label %lean_inc.exit, label %46

46:                                               ; preds = %45
  tail call void @lean_inc_ref_cold(ptr noundef nonnull %25) #7
  br label %lean_inc.exit

lean_inc.exit:                                    ; preds = %46, %45, %43, %lean_inc.exit22
  tail call void @lean_inc_heartbeat() #7
  %47 = tail call noalias ptr @mi_malloc_small(i64 noundef 24) #7
  %48 = icmp eq ptr %47, null
  br i1 %48, label %49, label %lean_alloc_ctor.exit

49:                                               ; preds = %lean_inc.exit
  tail call void @lean_internal_panic_out_of_memory() #8
  unreachable

lean_alloc_ctor.exit:                             ; preds = %lean_inc.exit
  %50 = getelementptr inbounds nuw i8, ptr %47, i64 4
  store i32 1, ptr %47, align 4, !tbaa !8
  store i32 131096, ptr %50, align 4
  %51 = getelementptr inbounds nuw i8, ptr %47, i64 8
  store ptr %25, ptr %51, align 8, !tbaa !4
  %52 = getelementptr inbounds nuw i8, ptr %47, i64 16
  store ptr %27, ptr %52, align 8, !tbaa !4
  tail call void @lean_inc_heartbeat() #7
  %53 = tail call noalias ptr @mi_malloc_small(i64 noundef 24) #7
  %54 = icmp eq ptr %53, null
  br i1 %54, label %55, label %lean_alloc_ctor.exit32

55:                                               ; preds = %lean_alloc_ctor.exit
  tail call void @lean_internal_panic_out_of_memory() #8
  unreachable

lean_alloc_ctor.exit32:                           ; preds = %lean_alloc_ctor.exit
  %56 = getelementptr inbounds nuw i8, ptr %53, i64 4
  store i32 1, ptr %53, align 4, !tbaa !8
  store i32 16908312, ptr %56, align 4
  %57 = getelementptr inbounds nuw i8, ptr %53, i64 8
  store ptr %47, ptr %57, align 8, !tbaa !4
  %58 = getelementptr inbounds nuw i8, ptr %53, i64 16
  store ptr %30, ptr %58, align 8, !tbaa !4
  br label %lean_inc.exit23

lean_inc.exit23:                                  ; preds = %14, %19, %21, %22, %lean_alloc_ctor.exit32
  %.0 = phi ptr [ %53, %lean_alloc_ctor.exit32 ], [ %2, %22 ], [ %2, %21 ], [ %2, %19 ], [ %2, %14 ]
  ret ptr %.0
}